; Function Attrs: mustprogress nofree norecurse nosync nounwind willreturn memory(argmem: readwrite) uwtable
define void @_ZN5folly10IOBufQueueC2ERKNS0_7OptionsE(ptr noundef nonnull align 8 dereferenceable(64) initializes((0, 1), (8, 32)) %0, ptr noundef nonnull readonly align 1 captures(none) dereferenceable(1) %1) unnamed_addr #0 align 2 personality ptr @__gxx_personality_v0 {
  %3 = load i8, ptr %1, align 1, !tbaa !7
  store i8 %3, ptr %0, align 8, !tbaa !7
  %4 = getelementptr inbounds nuw i8, ptr %0, i64 8
  %5 = getelementptr inbounds nuw i8, ptr %0, i64 32
  %6 = getelementptr inbounds nuw i8, ptr %0, i64 40
  tail call void @llvm.memset.p0.i64(ptr noundef nonnull align 8 dereferenceable(24) %4, i8 0, i64 24, i1 false)
  store ptr %6, ptr %5, align 8, !tbaa !11
  tail call void @llvm.memset.p0.i64(ptr noundef nonnull align 8 dereferenceable(17) %6, i8 0, i64 16, i1 false)
  %7 = getelementptr inbounds nuw i8, ptr %0, i64 56
  store i8 1, ptr %7, align 8, !tbaa !27
  ret void
}